target datalayout = "e-m:e-p270:32:32-p271:32:32-p272:64:64-i64:64-i128:128-f80:128-n8:16:32:64-S128"
target triple = "x86_64-pc-linux-gnu"

%struct.evp_test_st = type { %struct.stanza_st, ptr, i32, ptr, ptr, ptr, ptr, ptr, ptr, i32 }
%struct.stanza_st = type { ptr, ptr, i32, i32, i32, i32, i32, i32, [150 x %struct.pair_st], ptr, [32768 x i8] }
%struct.pair_st = type { ptr, ptr }
%struct.encode_data_st = type { ptr, i64, ptr, i64, i32 }

@.str.29 = private unnamed_addr constant [27 x i8] c"../openssl/test/evp_test.c\00", align 1
@.str.272 = private unnamed_addr constant [39 x i8] c"edata = OPENSSL_zalloc(sizeof(*edata))\00", align 1
@.str.273 = private unnamed_addr constant [10 x i8] c"canonical\00", align 1
@.str.274 = private unnamed_addr constant [6 x i8] c"valid\00", align 1
@.str.275 = private unnamed_addr constant [8 x i8] c"invalid\00", align 1
@.str.276 = private unnamed_addr constant [49 x i8] c"t->expected_err = OPENSSL_strdup(\22DECODE_ERROR\22)\00", align 1
@.str.277 = private unnamed_addr constant [13 x i8] c"DECODE_ERROR\00", align 1
@.str.278 = private unnamed_addr constant [63 x i8] c"Bad encoding: %s. Should be one of {canonical, valid, invalid}\00", align 1

; Function Attrs: nounwind uwtable
define internal i32 @encode_test_init(ptr noundef %0, ptr noundef %1) #0 {
  %3 = alloca i32, align 4
  %4 = alloca ptr, align 8
  %5 = alloca ptr, align 8
  %6 = alloca ptr, align 8
  %7 = alloca i32, align 4
  store ptr %0, ptr %4, align 8, !tbaa !15
  store ptr %1, ptr %5, align 8, !tbaa !4
  call void @llvm.lifetime.start.p0(i64 8, ptr %6) #10
  %8 = call noalias ptr @CRYPTO_zalloc(i64 noundef 40, ptr noundef @.str.29, i32 noundef 3241)
  store ptr %8, ptr %6, align 8, !tbaa !230
  %9 = call i32 @test_ptr(ptr noundef @.str.29, i32 noundef 3241, ptr noundef @.str.272, ptr noundef %8)
  %10 = icmp ne i32 %9, 0
  br i1 %10, label %12, label %11

11:                                               ; preds = %2
  store i32 0, ptr %3, align 4
  store i32 1, ptr %7, align 4
  br label %50

12:                                               ; preds = %2
  %13 = load ptr, ptr %5, align 8, !tbaa !4
  %14 = call i32 @strcmp(ptr noundef %13, ptr noundef @.str.273) #11
  %15 = icmp eq i32 %14, 0
  br i1 %15, label %16, label %19

16:                                               ; preds = %12
  %17 = load ptr, ptr %6, align 8, !tbaa !230
  %18 = getelementptr inbounds nuw %struct.encode_data_st, ptr %17, i32 0, i32 4
  store i32 0, ptr %18, align 8, !tbaa !232
  br label %44

19:                                               ; preds = %12
  %20 = load ptr, ptr %5, align 8, !tbaa !4
  %21 = call i32 @strcmp(ptr noundef %20, ptr noundef @.str.274) #11
  %22 = icmp eq i32 %21, 0
  br i1 %22, label %23, label %26

23:                                               ; preds = %19
  %24 = load ptr, ptr %6, align 8, !tbaa !230
  %25 = getelementptr inbounds nuw %struct.encode_data_st, ptr %24, i32 0, i32 4
  store i32 1, ptr %25, align 8, !tbaa !232
  br label %43

26:                                               ; preds = %19
  %27 = load ptr, ptr %5, align 8, !tbaa !4
  %28 = call i32 @strcmp(ptr noundef %27, ptr noundef @.str.275) #11
  %29 = icmp eq i32 %28, 0
  br i1 %29, label %30, label %40

30:                                               ; preds = %26
  %31 = load ptr, ptr %6, align 8, !tbaa !230
  %32 = getelementptr inbounds nuw %struct.encode_data_st, ptr %31, i32 0, i32 4
  store i32 2, ptr %32, align 8, !tbaa !232
  %33 = call noalias ptr @CRYPTO_strdup(ptr noundef @.str.277, ptr noundef @.str.29, i32 noundef 3249)
  %34 = load ptr, ptr %4, align 8, !tbaa !15
  %35 = getelementptr inbounds nuw %struct.evp_test_st, ptr %34, i32 0, i32 6
  store ptr %33, ptr %35, align 8, !tbaa !57
  %36 = call i32 @test_ptr(ptr noundef @.str.29, i32 noundef 3249, ptr noundef @.str.276, ptr noundef %33)
  %37 = icmp ne i32 %36, 0
  br i1 %37, label %39, label %38

38:                                               ; preds = %30
  br label %48

39:                                               ; preds = %30
  br label %42

40:                                               ; preds = %26
  %41 = load ptr, ptr %5, align 8, !tbaa !4
  call void (ptr, i32, ptr, ...) @test_error(ptr noundef @.str.29, i32 noundef 3254, ptr noundef @.str.278, ptr noundef %41)
  br label %48

42:                                               ; preds = %39
  br label %43

43:                                               ; preds = %42, %23
  br label %44

44:                                               ; preds = %43, %16
  %45 = load ptr, ptr %6, align 8, !tbaa !230
  %46 = load ptr, ptr %4, align 8, !tbaa !15
  %47 = getelementptr inbounds nuw %struct.evp_test_st, ptr %46, i32 0, i32 8
  store ptr %45, ptr %47, align 8, !tbaa !66
  store i32 1, ptr %3, align 4
  store i32 1, ptr %7, align 4
  br label %50

48:                                               ; preds = %40, %38
  %49 = load ptr, ptr %6, align 8, !tbaa !230
  call void @CRYPTO_free(ptr noundef %49, ptr noundef @.str.29, i32 noundef 3260)
  store i32 0, ptr %3, align 4
  store i32 1, ptr %7, align 4
  br label %50

50:                                               ; preds = %48, %44, %11
  call void @llvm.lifetime.end.p0(i64 8, ptr %6) #10
  %51 = load i32, ptr %3, align 4
  ret i32 %51
}