; Function Attrs: nounwind uwtable
define internal range(i32 0, 2) i32 @encode_test_init(ptr noundef writeonly captures(none) %0, ptr noundef %1) #1 {
  %3 = tail call noalias ptr @CRYPTO_zalloc(i64 noundef 40, ptr noundef nonnull @.str.29, i32 noundef 3241) #10
  %4 = tail call i32 @test_ptr(ptr noundef nonnull @.str.29, i32 noundef 3241, ptr noundef nonnull @.str.272, ptr noundef %3) #10
  %.not = icmp eq i32 %4, 0
  br i1 %.not, label %24, label %5

5:                                                ; preds = %2
  %6 = tail call i32 @strcmp(ptr noundef nonnull dereferenceable(1) %1, ptr noundef nonnull dereferenceable(10) @.str.273) #11
  %7 = icmp eq i32 %6, 0
  br i1 %7, label %.sink.split, label %8

8:                                                ; preds = %5
  %9 = tail call i32 @strcmp(ptr noundef nonnull dereferenceable(1) %1, ptr noundef nonnull dereferenceable(6) @.str.274) #11
  %10 = icmp eq i32 %9, 0
  br i1 %10, label %.sink.split, label %11

11:                                               ; preds = %8
  %12 = tail call i32 @strcmp(ptr noundef nonnull dereferenceable(1) %1, ptr noundef nonnull dereferenceable(8) @.str.275) #11
  %13 = icmp eq i32 %12, 0
  br i1 %13, label %14, label %19

14:                                               ; preds = %11
  %15 = getelementptr inbounds nuw i8, ptr %3, i64 32
  store i32 2, ptr %15, align 8, !tbaa !189
  %16 = tail call noalias ptr @CRYPTO_strdup(ptr noundef nonnull @.str.277, ptr noundef nonnull @.str.29, i32 noundef 3249) #10
  %17 = getelementptr inbounds nuw i8, ptr %0, i64 35256
  store ptr %16, ptr %17, align 8, !tbaa !24
  %18 = tail call i32 @test_ptr(ptr noundef nonnull @.str.29, i32 noundef 3249, ptr noundef nonnull @.str.276, ptr noundef %16) #10
  %.not11 = icmp eq i32 %18, 0
  br i1 %.not11, label %23, label %21

19:                                               ; preds = %11
  tail call void (ptr, i32, ptr, ...) @test_error(ptr noundef nonnull @.str.29, i32 noundef 3254, ptr noundef nonnull @.str.278, ptr noundef nonnull %1) #10
  br label %23

.sink.split:                                      ; preds = %8, %5
  %.sink = phi i32 [ 0, %5 ], [ 1, %8 ]
  %20 = getelementptr inbounds nuw i8, ptr %3, i64 32
  store i32 %.sink, ptr %20, align 8, !tbaa !189
  br label %21

21:                                               ; preds = %.sink.split, %14
  %22 = getelementptr inbounds nuw i8, ptr %0, i64 35272
  store ptr %3, ptr %22, align 8, !tbaa !20
  br label %24

23:                                               ; preds = %14, %19
  tail call void @CRYPTO_free(ptr noundef %3, ptr noundef nonnull @.str.29, i32 noundef 3260) #10
  br label %24

24:                                               ; preds = %2, %23, %21
  %.0 = phi i32 [ 1, %21 ], [ 0, %23 ], [ 0, %2 ]
  ret i32 %.0
}